; Function Attrs: mustprogress nounwind uwtable
define dso_local void @_ZN4llvm15MachineFunction18deleteMachineInstrEPNS_12MachineInstrE(ptr noundef nonnull align 8 dereferenceable(1041) %0, ptr noundef initializes((0, 8)) %1) local_unnamed_addr #0 align 2 {
  %3 = getelementptr inbounds nuw i8, ptr %1, i64 32
  %4 = load ptr, ptr %3, align 8
  %.not = icmp eq ptr %4, null
  br i1 %.not, label %17, label %5

5:                                                ; preds = %2
  %6 = getelementptr inbounds nuw i8, ptr %1, i64 43
  %.sroa.0.0.copyload = load i8, ptr %6, align 1
  %7 = getelementptr inbounds nuw i8, ptr %0, i64 232
  %8 = zext i8 %.sroa.0.0.copyload to i64
  %9 = tail call noundef i64 @_ZNK4llvm15SmallVectorBaseIjE4sizeEv(ptr noundef nonnull align 8 dereferenceable(80) %7) #25
  %.not.i.i.i = icmp ugt i64 %9, %8
  br i1 %.not.i.i.i, label %_ZN4llvm15MachineFunction22deallocateOperandArrayENS_13ArrayRecyclerINS_14MachineOperandELm8EE8CapacityEPS2_.exit, label %10

10:                                               ; preds = %5
  %11 = add nuw nsw i64 %8, 1
  tail call void @_ZN4llvm15SmallVectorImplIPNS_13ArrayRecyclerINS_14MachineOperandELm8EE8FreeListEE10resizeImplILb0EEEvm(ptr noundef nonnull align 8 dereferenceable(80) %7, i64 noundef %11)
  br label %_ZN4llvm15MachineFunction22deallocateOperandArrayENS_13ArrayRecyclerINS_14MachineOperandELm8EE8CapacityEPS2_.exit

_ZN4llvm15MachineFunction22deallocateOperandArrayENS_13ArrayRecyclerINS_14MachineOperandELm8EE8CapacityEPS2_.exit: ; preds = %5, %10
  %12 = load ptr, ptr %7, align 8
  %13 = getelementptr inbounds nuw ptr, ptr %12, i64 %8
  %14 = load ptr, ptr %13, align 8
  store ptr %14, ptr %4, align 8
  %15 = load ptr, ptr %7, align 8
  %16 = getelementptr inbounds nuw ptr, ptr %15, i64 %8
  store ptr %4, ptr %16, align 8
  br label %17

17:                                               ; preds = %_ZN4llvm15MachineFunction22deallocateOperandArrayENS_13ArrayRecyclerINS_14MachineOperandELm8EE8CapacityEPS2_.exit, %2
  %18 = getelementptr inbounds nuw i8, ptr %0, i64 224
  %19 = load ptr, ptr %18, align 8
  store ptr %19, ptr %1, align 8
  store ptr %1, ptr %18, align 8
  ret void
}